; Function Attrs: mustprogress uwtable
define hidden noundef zeroext i1 @_ZN2cv12WLByteStream8putBytesEPKvi(ptr noundef nonnull align 8 dereferenceable(64) %0, ptr noundef readonly %1, i32 noundef %2) local_unnamed_addr #1 align 2 personality ptr @__gxx_personality_v0 {
  %4 = alloca %"class.std::__cxx11::basic_string", align 8
  %5 = alloca %"class.std::allocator", align 1
  %.not = icmp eq ptr %1, null
  br i1 %.not, label %12, label %6

6:                                                ; preds = %3
  %7 = getelementptr inbounds nuw i8, ptr %0, i64 24
  %8 = load ptr, ptr %7, align 8, !tbaa !55
  %9 = icmp ne ptr %8, null
  %10 = icmp sgt i32 %2, -1
  %or.cond = and i1 %10, %9
  br i1 %or.cond, label %.preheader, label %12

.preheader:                                       ; preds = %6
  %.not3637 = icmp eq i32 %2, 0
  br i1 %.not3637, label %._crit_edge, label %.lr.ph

.lr.ph:                                           ; preds = %.preheader
  %11 = getelementptr inbounds nuw i8, ptr %0, i64 16
  br label %22

12:                                               ; preds = %6, %3
  call void @llvm.lifetime.start.p0(i64 32, ptr nonnull %4) #22
  call void @llvm.lifetime.start.p0(i64 1, ptr nonnull %5) #22
  call void @_ZNSt7__cxx1112basic_stringIcSt11char_traitsIcESaIcEEC2EPKcRKS3_(ptr noundef nonnull align 8 dereferenceable(32) %4, ptr noundef nonnull @.str.13, ptr noundef nonnull align 1 dereferenceable(1) %5)
  invoke void @_ZN2cv5errorEiRKNSt7__cxx1112basic_stringIcSt11char_traitsIcESaIcEEEPKcS9_i(i32 noundef -215, ptr noundef nonnull align 8 dereferenceable(32) %4, ptr noundef nonnull @__func__._ZN2cv12WLByteStream8putBytesEPKvi, ptr noundef nonnull @.str.1, i32 noundef 441) #24
          to label %13 unwind label %14

13:                                               ; preds = %12
  unreachable

14:                                               ; preds = %12
  %15 = landingpad { ptr, i32 }
          cleanup
  %16 = load ptr, ptr %4, align 8, !tbaa !23
  %17 = getelementptr inbounds nuw i8, ptr %4, i64 16
  %18 = icmp eq ptr %16, %17
  br i1 %18, label %_ZNKSt7__cxx1112basic_stringIcSt11char_traitsIcESaIcEE11_M_is_localEv.exit.thread.i.i, label %_ZNKSt7__cxx1112basic_stringIcSt11char_traitsIcESaIcEE11_M_is_localEv.exit.i.i

_ZNKSt7__cxx1112basic_stringIcSt11char_traitsIcESaIcEE11_M_is_localEv.exit.thread.i.i: ; preds = %14
  %19 = getelementptr inbounds nuw i8, ptr %4, i64 8
  %20 = load i64, ptr %19, align 8, !tbaa !27
  %21 = icmp ult i64 %20, 16
  call void @llvm.assume(i1 %21)
  br label %_ZNSt7__cxx1112basic_stringIcSt11char_traitsIcESaIcEED2Ev.exit

_ZNKSt7__cxx1112basic_stringIcSt11char_traitsIcESaIcEE11_M_is_localEv.exit.i.i: ; preds = %14
  call void @_ZdlPv(ptr noundef %16) #23
  br label %_ZNSt7__cxx1112basic_stringIcSt11char_traitsIcESaIcEED2Ev.exit

_ZNSt7__cxx1112basic_stringIcSt11char_traitsIcESaIcEED2Ev.exit: ; preds = %_ZNKSt7__cxx1112basic_stringIcSt11char_traitsIcESaIcEE11_M_is_localEv.exit.i.i, %_ZNKSt7__cxx1112basic_stringIcSt11char_traitsIcESaIcEE11_M_is_localEv.exit.thread.i.i
  call void @llvm.lifetime.end.p0(i64 1, ptr nonnull %5) #22
  call void @llvm.lifetime.end.p0(i64 32, ptr nonnull %4) #22
  resume { ptr, i32 } %15

22:                                               ; preds = %.lr.ph, %.critedge
  %.02839 = phi ptr [ %1, %.lr.ph ], [ %.129, %.critedge ]
  %.03038 = phi i32 [ %2, %.lr.ph ], [ %.131, %.critedge ]
  %23 = load ptr, ptr %11, align 8, !tbaa !54
  %24 = load ptr, ptr %7, align 8, !tbaa !55
  %25 = ptrtoint ptr %23 to i64
  %26 = ptrtoint ptr %24 to i64
  %27 = sub i64 %25, %26
  %28 = trunc i64 %27 to i32
  %spec.select = tail call i32 @llvm.smin.i32(i32 %.03038, i32 %28)
  %29 = icmp sgt i32 %spec.select, 0
  br i1 %29, label %30, label %36

30:                                               ; preds = %22
  %31 = zext nneg i32 %spec.select to i64
  tail call void @llvm.memcpy.p0.p0.i64(ptr align 1 %24, ptr align 1 %.02839, i64 %31, i1 false)
  %32 = load ptr, ptr %7, align 8, !tbaa !55
  %33 = getelementptr inbounds nuw i8, ptr %32, i64 %31
  store ptr %33, ptr %7, align 8, !tbaa !55
  %34 = getelementptr inbounds nuw i8, ptr %.02839, i64 %31
  %35 = sub nsw i32 %.03038, %spec.select
  %.pre = load ptr, ptr %11, align 8, !tbaa !54
  br label %36

36:                                               ; preds = %30, %22
  %37 = phi ptr [ %.pre, %30 ], [ %23, %22 ]
  %38 = phi ptr [ %33, %30 ], [ %24, %22 ]
  %.131 = phi i32 [ %35, %30 ], [ %.03038, %22 ]
  %.129 = phi ptr [ %34, %30 ], [ %.02839, %22 ]
  %39 = icmp eq ptr %38, %37
  br i1 %39, label %40, label %.critedge

40:                                               ; preds = %36
  %41 = load ptr, ptr %0, align 8, !tbaa !19
  %42 = getelementptr inbounds nuw i8, ptr %41, i64 40
  %43 = load ptr, ptr %42, align 8
  %44 = tail call noundef zeroext i1 %43(ptr noundef nonnull align 8 dereferenceable(64) %0)
  br i1 %44, label %.critedge, label %._crit_edge, !llvm.loop !60

.critedge:                                        ; preds = %40, %36
  %.not36 = icmp eq i32 %.131, 0
  br i1 %.not36, label %._crit_edge, label %22

._crit_edge:                                      ; preds = %40, %.critedge, %.preheader
  %.not36.lcssa = phi i1 [ true, %.preheader ], [ true, %.critedge ], [ false, %40 ]
  ret i1 %.not36.lcssa
}